; ModuleID = '57/3110.c'
source_filename = "57/3110.c"
target datalayout = "e-m:e-p270:32:32-p271:32:32-p272:64:64-i64:64-f80:128-n8:16:32:64-S128"
target triple = "x86_64-pc-linux-gnu"

@.str = private unnamed_addr constant [3 x i8] c"%d\00", align 1
@.str.1 = private unnamed_addr constant [3 x i8] c"%s\00", align 1
@.str.2 = private unnamed_addr constant [4 x i8] c"%s\0A\00", align 1

; Function Attrs: noinline nounwind uwtable
define dso_local i32 @main() #0 {
  %1 = alloca i32, align 4
  %2 = alloca i32, align 4
  %3 = alloca i32, align 4
  %4 = alloca [34 x i8], align 16
  %5 = alloca i32, align 4
  %6 = alloca i32, align 4
  store i32 0, i32* %1, align 4
  %7 = call i32 (i8*, ...) @__isoc99_scanf(i8* getelementptr inbounds ([3 x i8], [3 x i8]* @.str, i64 0, i64 0), i32* %2)
  store i32 0, i32* %5, align 4
  br label %8

8:                                                ; preds = %108, %0
  %9 = load i32, i32* %5, align 4
  %10 = load i32, i32* %2, align 4
  %11 = icmp slt i32 %9, %10
  br i1 %11, label %12, label %111

12:                                               ; preds = %8
  %13 = getelementptr inbounds [34 x i8], [34 x i8]* %4, i64 0, i64 0
  %14 = call i32 (i8*, ...) @__isoc99_scanf(i8* getelementptr inbounds ([3 x i8], [3 x i8]* @.str.1, i64 0, i64 0), i8* %13)
  %15 = getelementptr inbounds [34 x i8], [34 x i8]* %4, i64 0, i64 0
  %16 = call i64 @strlen(i8* %15) #3
  %17 = trunc i64 %16 to i32
  store i32 %17, i32* %3, align 4
  store i32 0, i32* %6, align 4
  br label %18

18:                                               ; preds = %102, %12
  %19 = load i32, i32* %6, align 4
  %20 = load i32, i32* %3, align 4
  %21 = icmp slt i32 %19, %20
  br i1 %21, label %22, label %105

22:                                               ; preds = %18
  %23 = load i32, i32* %3, align 4
  %24 = sub nsw i32 %23, 1
  %25 = sext i32 %24 to i64
  %26 = getelementptr inbounds [34 x i8], [34 x i8]* %4, i64 0, i64 %25
  %27 = load i8, i8* %26, align 1
  %28 = sext i8 %27 to i32
  %29 = icmp eq i32 %28, 114
  br i1 %29, label %30, label %38

30:                                               ; preds = %22
  %31 = load i32, i32* %3, align 4
  %32 = sub nsw i32 %31, 2
  %33 = sext i32 %32 to i64
  %34 = getelementptr inbounds [34 x i8], [34 x i8]* %4, i64 0, i64 %33
  %35 = load i8, i8* %34, align 1
  %36 = sext i8 %35 to i32
  %37 = icmp eq i32 %36, 101
  br i1 %37, label %54, label %38

38:                                               ; preds = %30, %22
  %39 = load i32, i32* %3, align 4
  %40 = sub nsw i32 %39, 1
  %41 = sext i32 %40 to i64
  %42 = getelementptr inbounds [34 x i8], [34 x i8]* %4, i64 0, i64 %41
  %43 = load i8, i8* %42, align 1
  %44 = sext i8 %43 to i32
  %45 = icmp eq i32 %44, 121
  br i1 %45, label %46, label %63

46:                                               ; preds = %38
  %47 = load i32, i32* %3, align 4
  %48 = sub nsw i32 %47, 2
  %49 = sext i32 %48 to i64
  %50 = getelementptr inbounds [34 x i8], [34 x i8]* %4, i64 0, i64 %49
  %51 = load i8, i8* %50, align 1
  %52 = sext i8 %51 to i32
  %53 = icmp eq i32 %52, 108
  br i1 %53, label %54, label %63

54:                                               ; preds = %46, %30
  %55 = load i32, i32* %3, align 4
  %56 = sub nsw i32 %55, 1
  %57 = sext i32 %56 to i64
  %58 = getelementptr inbounds [34 x i8], [34 x i8]* %4, i64 0, i64 %57
  store i8 0, i8* %58, align 1
  %59 = load i32, i32* %3, align 4
  %60 = sub nsw i32 %59, 2
  %61 = sext i32 %60 to i64
  %62 = getelementptr inbounds [34 x i8], [34 x i8]* %4, i64 0, i64 %61
  store i8 0, i8* %62, align 1
  br label %101

63:                                               ; preds = %46, %38
  %64 = load i32, i32* %3, align 4
  %65 = sub nsw i32 %64, 1
  %66 = sext i32 %65 to i64
  %67 = getelementptr inbounds [34 x i8], [34 x i8]* %4, i64 0, i64 %66
  %68 = load i8, i8* %67, align 1
  %69 = sext i8 %68 to i32
  %70 = icmp eq i32 %69, 103
  br i1 %70, label %71, label %100

71:                                               ; preds = %63
  %72 = load i32, i32* %3, align 4
  %73 = sub nsw i32 %72, 2
  %74 = sext i32 %73 to i64
  %75 = getelementptr inbounds [34 x i8], [34 x i8]* %4, i64 0, i64 %74
  %76 = load i8, i8* %75, align 1
  %77 = sext i8 %76 to i32
  %78 = icmp eq i32 %77, 110
  br i1 %78, label %79, label %100

79:                                               ; preds = %71
  %80 = load i32, i32* %3, align 4
  %81 = sub nsw i32 %80, 3
  %82 = sext i32 %81 to i64
  %83 = getelementptr inbounds [34 x i8], [34 x i8]* %4, i64 0, i64 %82
  %84 = load i8, i8* %83, align 1
  %85 = sext i8 %84 to i32
  %86 = icmp eq i32 %85, 105
  br i1 %86, label %87, label %100

87:                                               ; preds = %79
  %88 = load i32, i32* %3, align 4
  %89 = sub nsw i32 %88, 1
  %90 = sext i32 %89 to i64
  %91 = getelementptr inbounds [34 x i8], [34 x i8]* %4, i64 0, i64 %90
  store i8 0, i8* %91, align 1
  %92 = load i32, i32* %3, align 4
  %93 = sub nsw i32 %92, 2
  %94 = sext i32 %93 to i64
  %95 = getelementptr inbounds [34 x i8], [34 x i8]* %4, i64 0, i64 %94
  store i8 0, i8* %95, align 1
  %96 = load i32, i32* %3, align 4
  %97 = sub nsw i32 %96, 3
  %98 = sext i32 %97 to i64
  %99 = getelementptr inbounds [34 x i8], [34 x i8]* %4, i64 0, i64 %98
  store i8 0, i8* %99, align 1
  br label %100

100:                                              ; preds = %87, %79, %71, %63
  br label %101

101:                                              ; preds = %100, %54
  br label %102

102:                                              ; preds = %101
  %103 = load i32, i32* %6, align 4
  %104 = add nsw i32 %103, 1
  store i32 %104, i32* %6, align 4
  br label %18

105:                                              ; preds = %18
  %106 = getelementptr inbounds [34 x i8], [34 x i8]* %4, i64 0, i64 0
  %107 = call i32 (i8*, ...) @printf(i8* getelementptr inbounds ([4 x i8], [4 x i8]* @.str.2, i64 0, i64 0), i8* %106)
  br label %108

108:                                              ; preds = %105
  %109 = load i32, i32* %5, align 4
  %110 = add nsw i32 %109, 1
  store i32 %110, i32* %5, align 4
  br label %8

111:                                              ; preds = %8
  ret i32 0
}

declare dso_local i32 @__isoc99_scanf(i8*, ...) #1

; Function Attrs: nounwind readonly
declare dso_local i64 @strlen(i8*) #2

declare dso_local i32 @printf(i8*, ...) #1


!llvm.module.flags = !{!0}
!llvm.ident = !{!1}

!0 = !{i32 1, !"wchar_size", i32 4}
!1 = !{!"clang version 10.0.0-4ubuntu1 "}
